target datalayout = "e-m:e-p270:32:32-p271:32:32-p272:64:64-i64:64-i128:128-f80:128-n8:16:32:64-S128"
target triple = "x86_64-pc-linux-gnu"

%struct.Abc_Ntk_t_ = type { i32, i32, ptr, ptr, ptr, ptr, ptr, ptr, ptr, ptr, ptr, ptr, ptr, [11 x i32], i32, i32, i32, i32, ptr, i32, ptr, ptr, i32, i32, i32, double, i32, %struct.Vec_Int_t_, ptr, ptr, ptr, ptr, ptr, float, i32, ptr, ptr, ptr, ptr, ptr, ptr, ptr, ptr, ptr, ptr, ptr, ptr, ptr, ptr, ptr, ptr, ptr, ptr, ptr, ptr, ptr, ptr }
%struct.Vec_Int_t_ = type { i32, i32, ptr }

; Function Attrs: inlinehint nounwind uwtable
define internal i32 @Abc_NtkHasAig(ptr noundef %0) #6 {
  %2 = alloca ptr, align 8
  store ptr %0, ptr %2, align 8, !tbaa !26
  %3 = load ptr, ptr %2, align 8, !tbaa !26
  %4 = getelementptr inbounds nuw %struct.Abc_Ntk_t_, ptr %3, i32 0, i32 1
  %5 = load i32, ptr %4, align 4, !tbaa !63
  %6 = icmp eq i32 %5, 3
  %7 = zext i1 %6 to i32
  ret i32 %7
}

; Function Attrs: inlinehint nounwind uwtable
define internal i32 @Abc_NtkHasBdd(ptr noundef %0) #6 {
  %2 = alloca ptr, align 8
  store ptr %0, ptr %2, align 8, !tbaa !26
  %3 = load ptr, ptr %2, align 8, !tbaa !26
  %4 = getelementptr inbounds nuw %struct.Abc_Ntk_t_, ptr %3, i32 0, i32 1
  %5 = load i32, ptr %4, align 4, !tbaa !63
  %6 = icmp eq i32 %5, 2
  %7 = zext i1 %6 to i32
  ret i32 %7
}

; Function Attrs: inlinehint nounwind uwtable
define internal i32 @Abc_NtkHasMapping(ptr noundef %0) #6 {
  %2 = alloca ptr, align 8
  store ptr %0, ptr %2, align 8, !tbaa !26
  %3 = load ptr, ptr %2, align 8, !tbaa !26
  %4 = getelementptr inbounds nuw %struct.Abc_Ntk_t_, ptr %3, i32 0, i32 1
  %5 = load i32, ptr %4, align 4, !tbaa !63
  %6 = icmp eq i32 %5, 4
  %7 = zext i1 %6 to i32
  ret i32 %7
}

; Function Attrs: inlinehint nounwind uwtable
define internal i32 @Abc_NtkHasSop(ptr noundef %0) #6 {
  %2 = alloca ptr, align 8
  store ptr %0, ptr %2, align 8, !tbaa !26
  %3 = load ptr, ptr %2, align 8, !tbaa !26
  %4 = getelementptr inbounds nuw %struct.Abc_Ntk_t_, ptr %3, i32 0, i32 1
  %5 = load i32, ptr %4, align 4, !tbaa !63
  %6 = icmp eq i32 %5, 1
  %7 = zext i1 %6 to i32
  ret i32 %7
}

; Function Attrs: inlinehint nounwind uwtable
define internal i32 @Abc_NtkHasBlackbox(ptr noundef %0) #6 {
  %2 = alloca ptr, align 8
  store ptr %0, ptr %2, align 8, !tbaa !26
  %3 = load ptr, ptr %2, align 8, !tbaa !26
  %4 = getelementptr inbounds nuw %struct.Abc_Ntk_t_, ptr %3, i32 0, i32 1
  %5 = load i32, ptr %4, align 4, !tbaa !63
  %6 = icmp eq i32 %5, 6
  %7 = zext i1 %6 to i32
  ret i32 %7
}

; Function Attrs: nounwind uwtable
define i32 @Abc_NtkToSop(ptr noundef %0, i32 noundef %1, i32 noundef %2) #0 {
  %4 = alloca i32, align 4
  %5 = alloca ptr, align 8
  %6 = alloca i32, align 4
  %7 = alloca i32, align 4
  store ptr %0, ptr %5, align 8, !tbaa !26
  store i32 %1, ptr %6, align 4, !tbaa !8
  store i32 %2, ptr %7, align 4, !tbaa !8
  %8 = load ptr, ptr %5, align 8, !tbaa !26
  %9 = call i32 @Abc_NtkHasBlackbox(ptr noundef %8)
  %10 = icmp ne i32 %9, 0
  br i1 %10, label %11, label %12

11:                                               ; preds = %3
  store i32 1, ptr %4, align 4
  br label %61

12:                                               ; preds = %3
  %13 = load ptr, ptr %5, align 8, !tbaa !26
  %14 = call i32 @Abc_NtkHasSop(ptr noundef %13)
  %15 = icmp ne i32 %14, 0
  br i1 %15, label %16, label %30

16:                                               ; preds = %12
  %17 = load i32, ptr %6, align 4, !tbaa !8
  %18 = icmp eq i32 %17, -1
  br i1 %18, label %19, label %20

19:                                               ; preds = %16
  store i32 1, ptr %4, align 4
  br label %61

20:                                               ; preds = %16
  %21 = load ptr, ptr %5, align 8, !tbaa !26
  %22 = call i32 @Abc_NtkSopToBdd(ptr noundef %21)
  %23 = icmp ne i32 %22, 0
  br i1 %23, label %25, label %24

24:                                               ; preds = %20
  store i32 0, ptr %4, align 4
  br label %61

25:                                               ; preds = %20
  %26 = load ptr, ptr %5, align 8, !tbaa !26
  %27 = load i32, ptr %6, align 4, !tbaa !8
  %28 = load i32, ptr %7, align 4, !tbaa !8
  %29 = call i32 @Abc_NtkBddToSop(ptr noundef %26, i32 noundef %27, i32 noundef %28, i32 noundef 1)
  store i32 %29, ptr %4, align 4
  br label %61

30:                                               ; preds = %12
  %31 = load ptr, ptr %5, align 8, !tbaa !26
  %32 = call i32 @Abc_NtkHasMapping(ptr noundef %31)
  %33 = icmp ne i32 %32, 0
  br i1 %33, label %34, label %37

34:                                               ; preds = %30
  %35 = load ptr, ptr %5, align 8, !tbaa !26
  %36 = call i32 @Abc_NtkMapToSop(ptr noundef %35)
  store i32 %36, ptr %4, align 4
  br label %61

37:                                               ; preds = %30
  %38 = load ptr, ptr %5, align 8, !tbaa !26
  %39 = call i32 @Abc_NtkHasBdd(ptr noundef %38)
  %40 = icmp ne i32 %39, 0
  br i1 %40, label %41, label %46

41:                                               ; preds = %37
  %42 = load ptr, ptr %5, align 8, !tbaa !26
  %43 = load i32, ptr %6, align 4, !tbaa !8
  %44 = load i32, ptr %7, align 4, !tbaa !8
  %45 = call i32 @Abc_NtkBddToSop(ptr noundef %42, i32 noundef %43, i32 noundef %44, i32 noundef 1)
  store i32 %45, ptr %4, align 4
  br label %61

46:                                               ; preds = %37
  %47 = load ptr, ptr %5, align 8, !tbaa !26
  %48 = call i32 @Abc_NtkHasAig(ptr noundef %47)
  %49 = icmp ne i32 %48, 0
  br i1 %49, label %50, label %60

50:                                               ; preds = %46
  %51 = load ptr, ptr %5, align 8, !tbaa !26
  %52 = call i32 @Abc_NtkAigToBdd(ptr noundef %51)
  %53 = icmp ne i32 %52, 0
  br i1 %53, label %55, label %54

54:                                               ; preds = %50
  store i32 0, ptr %4, align 4
  br label %61

55:                                               ; preds = %50
  %56 = load ptr, ptr %5, align 8, !tbaa !26
  %57 = load i32, ptr %6, align 4, !tbaa !8
  %58 = load i32, ptr %7, align 4, !tbaa !8
  %59 = call i32 @Abc_NtkBddToSop(ptr noundef %56, i32 noundef %57, i32 noundef %58, i32 noundef 1)
  store i32 %59, ptr %4, align 4
  br label %61

60:                                               ; preds = %46
  store i32 0, ptr %4, align 4
  br label %61

61:                                               ; preds = %60, %55, %54, %41, %34, %25, %24, %19, %11
  %62 = load i32, ptr %4, align 4
  ret i32 %62
}