; Function Attrs: nounwind uwtable
define range(i32 0, 2) i32 @Abc_NtkToSop(ptr noundef %0, i32 noundef %1, i32 noundef %2) local_unnamed_addr #2 {
  %4 = getelementptr i8, ptr %0, i64 4
  %.val25 = load i32, ptr %4, align 4, !tbaa !46
  switch i32 %.val25, label %.fold.split [
    i32 6, label %19
    i32 1, label %5
    i32 4, label %11
    i32 2, label %13
    i32 3, label %15
  ]

5:                                                ; preds = %3
  %6 = icmp eq i32 %1, -1
  br i1 %6, label %19, label %7

7:                                                ; preds = %5
  %8 = tail call i32 @Abc_NtkSopToBdd(ptr noundef nonnull %0)
  %.not24 = icmp eq i32 %8, 0
  br i1 %.not24, label %19, label %9

9:                                                ; preds = %7
  %10 = tail call i32 @Abc_NtkBddToSop(ptr noundef nonnull %0, i32 noundef %1, i32 noundef %2, i32 noundef 1)
  br label %19

11:                                               ; preds = %3
  %12 = tail call i32 @Abc_NtkMapToSop(ptr noundef nonnull %0)
  br label %19

13:                                               ; preds = %3
  %14 = tail call i32 @Abc_NtkBddToSop(ptr noundef nonnull %0, i32 noundef %1, i32 noundef %2, i32 noundef 1)
  br label %19

15:                                               ; preds = %3
  %16 = tail call i32 @Abc_NtkAigToBdd(ptr noundef nonnull %0)
  %.not23 = icmp eq i32 %16, 0
  br i1 %.not23, label %19, label %17

17:                                               ; preds = %15
  %18 = tail call i32 @Abc_NtkBddToSop(ptr noundef nonnull %0, i32 noundef %1, i32 noundef %2, i32 noundef 1)
  br label %19

.fold.split:                                      ; preds = %3
  br label %19

19:                                               ; preds = %3, %.fold.split, %15, %7, %5, %17, %13, %11, %9
  %.0 = phi i32 [ %10, %9 ], [ 1, %11 ], [ %14, %13 ], [ %18, %17 ], [ 1, %3 ], [ 1, %5 ], [ 0, %7 ], [ 0, %15 ], [ 0, %.fold.split ]
  ret i32 %.0
}